; Function Attrs: mustprogress uwtable
define internal noundef nonnull ptr @_ZN7testing8internal15TestFactoryImplIN4absl18container_internal12_GLOBAL__N_130NodeTest_ConstructDestroy_TestEE10CreateTestEv(ptr nonnull readnone align 8 captures(none) %0) unnamed_addr #4 align 2 personality ptr @__gxx_personality_v0 {
  %2 = tail call noalias noundef nonnull dereferenceable(32) ptr @_Znwm(i64 noundef 32) #23
  invoke void @_ZN7testing4TestC2Ev(ptr noundef nonnull align 8 dereferenceable(32) %2)
          to label %3 unwind label %6

3:                                                ; preds = %1
  %4 = getelementptr inbounds nuw i8, ptr %2, i64 20
  store i32 53, ptr %4, align 4, !tbaa !4
  %5 = getelementptr inbounds nuw i8, ptr %2, i64 24
  store ptr %4, ptr %5, align 8, !tbaa !20
  store ptr getelementptr inbounds nuw inrange(-16, 48) (i8, ptr @_ZTVN4absl18container_internal12_GLOBAL__N_130NodeTest_ConstructDestroy_TestE, i64 16), ptr %2, align 8, !tbaa !21
  ret ptr %2

6:                                                ; preds = %1
  %7 = landingpad { ptr, i32 }
          cleanup
  tail call void @_ZdlPvm(ptr noundef nonnull %2, i64 noundef 32) #22
  resume { ptr, i32 } %7
}